target datalayout = "e-m:e-p270:32:32-p271:32:32-p272:64:64-i64:64-i128:128-f80:128-n8:16:32:64-S128"
target triple = "x86_64-pc-linux-gnu"

%class.anon = type { ptr }
%"struct.absl::container_internal::(anonymous namespace)::Test" = type { %"class.testing::Test", [4 x i8], i32, %"class.testing::MockFunction", %"class.testing::MockFunction.16", %"class.testing::MockFunction.19", %"class.testing::MockFunction.22" }
%"class.testing::Test" = type { ptr, %"class.std::unique_ptr" }
%"class.std::unique_ptr" = type { %"struct.std::__uniq_ptr_data" }
%"struct.std::__uniq_ptr_data" = type { %"class.std::__uniq_ptr_impl" }
%"class.std::__uniq_ptr_impl" = type { %"class.std::tuple" }
%"class.std::tuple" = type { %"struct.std::_Tuple_impl" }
%"struct.std::_Tuple_impl" = type { %"struct.std::_Head_base.7" }
%"struct.std::_Head_base.7" = type { ptr }
%"class.testing::MockFunction" = type { %"class.testing::internal::MockFunction" }
%"class.testing::internal::MockFunction" = type { %"class.testing::internal::FunctionMocker" }
%"class.testing::internal::FunctionMocker" = type { %"class.testing::internal::UntypedFunctionMockerBase" }
%"class.testing::internal::UntypedFunctionMockerBase" = type { ptr, ptr, ptr, %"class.std::vector", %"class.std::vector.11" }
%"class.std::vector" = type { %"struct.std::_Vector_base" }
%"struct.std::_Vector_base" = type { %"struct.std::_Vector_base<const void *, std::allocator<const void *>>::_Vector_impl" }
%"struct.std::_Vector_base<const void *, std::allocator<const void *>>::_Vector_impl" = type { %"struct.std::_Vector_base<const void *, std::allocator<const void *>>::_Vector_impl_data" }
%"struct.std::_Vector_base<const void *, std::allocator<const void *>>::_Vector_impl_data" = type { ptr, ptr, ptr }
%"class.std::vector.11" = type { %"struct.std::_Vector_base.12" }
%"struct.std::_Vector_base.12" = type { %"struct.std::_Vector_base<std::shared_ptr<testing::internal::ExpectationBase>, std::allocator<std::shared_ptr<testing::internal::ExpectationBase>>>::_Vector_impl" }
%"struct.std::_Vector_base<std::shared_ptr<testing::internal::ExpectationBase>, std::allocator<std::shared_ptr<testing::internal::ExpectationBase>>>::_Vector_impl" = type { %"struct.std::_Vector_base<std::shared_ptr<testing::internal::ExpectationBase>, std::allocator<std::shared_ptr<testing::internal::ExpectationBase>>>::_Vector_impl_data" }
%"struct.std::_Vector_base<std::shared_ptr<testing::internal::ExpectationBase>, std::allocator<std::shared_ptr<testing::internal::ExpectationBase>>>::_Vector_impl_data" = type { ptr, ptr, ptr }
%"class.testing::MockFunction.16" = type { %"class.testing::internal::MockFunction.17" }
%"class.testing::internal::MockFunction.17" = type { %"class.testing::internal::FunctionMocker.18" }
%"class.testing::internal::FunctionMocker.18" = type { %"class.testing::internal::UntypedFunctionMockerBase" }
%"class.testing::MockFunction.19" = type { %"class.testing::internal::MockFunction.20" }
%"class.testing::internal::MockFunction.20" = type { %"class.testing::internal::FunctionMocker.21" }
%"class.testing::internal::FunctionMocker.21" = type { %"class.testing::internal::UntypedFunctionMockerBase" }
%"class.testing::MockFunction.22" = type { %"class.testing::internal::MockFunction.23" }
%"class.testing::internal::MockFunction.23" = type { %"class.testing::internal::FunctionMocker.24" }
%"class.testing::internal::FunctionMocker.24" = type { %"class.testing::internal::UntypedFunctionMockerBase" }
%"struct.std::_Head_base.57" = type { ptr }
%"struct.std::_Head_base.56" = type { ptr }
%"struct.std::_Head_base.55" = type { i32 }
%"class.std::tuple.51" = type { %"struct.std::_Tuple_impl.52" }
%"struct.std::_Tuple_impl.52" = type { %"struct.std::_Tuple_impl.53", %"struct.std::_Head_base.57" }
%"struct.std::_Tuple_impl.53" = type { %"struct.std::_Tuple_impl.54", %"struct.std::_Head_base.56" }
%"struct.std::_Tuple_impl.54" = type { %"struct.std::_Head_base.55" }

@.str.73 = private unnamed_addr constant [5 x i8] c"Call\00", align 1

; Function Attrs: mustprogress nounwind uwtable
define linkonce_odr dso_local void @_ZNSt10_Head_baseILm2EiLb0EEC2IiEEOT_(ptr noundef nonnull align 4 dereferenceable(4) %0, ptr noundef nonnull align 4 dereferenceable(4) %1) unnamed_addr #5 comdat align 2 {
  %3 = alloca ptr, align 8
  %4 = alloca ptr, align 8
  store ptr %0, ptr %3, align 8, !tbaa !284
  store ptr %1, ptr %4, align 8, !tbaa !257
  %5 = load ptr, ptr %3, align 8
  %6 = getelementptr inbounds nuw %"struct.std::_Head_base.55", ptr %5, i32 0, i32 0
  %7 = load ptr, ptr %4, align 8, !tbaa !257
  %8 = load i32, ptr %7, align 4, !tbaa !17
  store i32 %8, ptr %6, align 4, !tbaa !590
  ret void
}

; Function Attrs: mustprogress nounwind uwtable
define linkonce_odr dso_local void @_ZNSt10_Head_baseILm1EPiLb0EEC2IS0_EEOT_(ptr noundef nonnull align 8 dereferenceable(8) %0, ptr noundef nonnull align 8 dereferenceable(8) %1) unnamed_addr #5 comdat align 2 {
  %3 = alloca ptr, align 8
  %4 = alloca ptr, align 8
  store ptr %0, ptr %3, align 8, !tbaa !277
  store ptr %1, ptr %4, align 8, !tbaa !259
  %5 = load ptr, ptr %3, align 8
  %6 = getelementptr inbounds nuw %"struct.std::_Head_base.56", ptr %5, i32 0, i32 0
  %7 = load ptr, ptr %4, align 8, !tbaa !259
  %8 = load ptr, ptr %7, align 8, !tbaa !257
  store ptr %8, ptr %6, align 8, !tbaa !588
  ret void
}

; Function Attrs: mustprogress uwtable
define linkonce_odr dso_local void @_ZNSt11_Tuple_implILm2EJiEEC2IiEEOT_(ptr noundef nonnull align 4 dereferenceable(4) %0, ptr noundef nonnull align 4 dereferenceable(4) %1) unnamed_addr #6 comdat align 2 {
  %3 = alloca ptr, align 8
  %4 = alloca ptr, align 8
  store ptr %0, ptr %3, align 8, !tbaa !282
  store ptr %1, ptr %4, align 8, !tbaa !257
  %5 = load ptr, ptr %3, align 8
  %6 = load ptr, ptr %4, align 8, !tbaa !257
  call void @_ZNSt10_Head_baseILm2EiLb0EEC2IiEEOT_(ptr noundef nonnull align 4 dereferenceable(4) %5, ptr noundef nonnull align 4 dereferenceable(4) %6)
  ret void
}

; Function Attrs: mustprogress nounwind uwtable
define linkonce_odr dso_local void @_ZNSt10_Head_baseILm0EPvLb0EEC2IS0_EEOT_(ptr noundef nonnull align 8 dereferenceable(8) %0, ptr noundef nonnull align 8 dereferenceable(8) %1) unnamed_addr #5 comdat align 2 {
  %3 = alloca ptr, align 8
  %4 = alloca ptr, align 8
  store ptr %0, ptr %3, align 8, !tbaa !270
  store ptr %1, ptr %4, align 8, !tbaa !24
  %5 = load ptr, ptr %3, align 8
  %6 = getelementptr inbounds nuw %"struct.std::_Head_base.57", ptr %5, i32 0, i32 0
  %7 = load ptr, ptr %4, align 8, !tbaa !24
  %8 = load ptr, ptr %7, align 8, !tbaa !24
  store ptr %8, ptr %6, align 8, !tbaa !586
  ret void
}

; Function Attrs: mustprogress uwtable
define linkonce_odr dso_local void @_ZNSt11_Tuple_implILm1EJPiiEEC2IS0_JiEvEEOT_DpOT0_(ptr noundef nonnull align 8 dereferenceable(16) %0, ptr noundef nonnull align 8 dereferenceable(8) %1, ptr noundef nonnull align 4 dereferenceable(4) %2) unnamed_addr #6 comdat align 2 {
  %4 = alloca ptr, align 8
  %5 = alloca ptr, align 8
  %6 = alloca ptr, align 8
  store ptr %0, ptr %4, align 8, !tbaa !275
  store ptr %1, ptr %5, align 8, !tbaa !259
  store ptr %2, ptr %6, align 8, !tbaa !257
  %7 = load ptr, ptr %4, align 8
  %8 = load ptr, ptr %6, align 8, !tbaa !257
  call void @_ZNSt11_Tuple_implILm2EJiEEC2IiEEOT_(ptr noundef nonnull align 4 dereferenceable(4) %7, ptr noundef nonnull align 4 dereferenceable(4) %8)
  %9 = getelementptr inbounds i8, ptr %7, i64 8
  %10 = load ptr, ptr %5, align 8, !tbaa !259
  call void @_ZNSt10_Head_baseILm1EPiLb0EEC2IS0_EEOT_(ptr noundef nonnull align 8 dereferenceable(8) %9, ptr noundef nonnull align 8 dereferenceable(8) %10)
  ret void
}

; Function Attrs: noinline noreturn nounwind uwtable
define linkonce_odr hidden void @__clang_call_terminate(ptr noundef %0) #11 comdat {
  %2 = call ptr @__cxa_begin_catch(ptr %0) #3
  call void @_ZSt9terminatev() #27
  unreachable
}

; Function Attrs: mustprogress uwtable
define linkonce_odr dso_local void @_ZNSt11_Tuple_implILm0EJPvPiiEEC2IS0_JS1_iEvEEOT_DpOT0_(ptr noundef nonnull align 8 dereferenceable(24) %0, ptr noundef nonnull align 8 dereferenceable(8) %1, ptr noundef nonnull align 8 dereferenceable(8) %2, ptr noundef nonnull align 4 dereferenceable(4) %3) unnamed_addr #6 comdat align 2 {
  %5 = alloca ptr, align 8
  %6 = alloca ptr, align 8
  %7 = alloca ptr, align 8
  %8 = alloca ptr, align 8
  store ptr %0, ptr %5, align 8, !tbaa !268
  store ptr %1, ptr %6, align 8, !tbaa !24
  store ptr %2, ptr %7, align 8, !tbaa !259
  store ptr %3, ptr %8, align 8, !tbaa !257
  %9 = load ptr, ptr %5, align 8
  %10 = load ptr, ptr %7, align 8, !tbaa !259
  %11 = load ptr, ptr %8, align 8, !tbaa !257
  call void @_ZNSt11_Tuple_implILm1EJPiiEEC2IS0_JiEvEEOT_DpOT0_(ptr noundef nonnull align 8 dereferenceable(16) %9, ptr noundef nonnull align 8 dereferenceable(8) %10, ptr noundef nonnull align 4 dereferenceable(4) %11)
  %12 = getelementptr inbounds i8, ptr %9, i64 16
  %13 = load ptr, ptr %6, align 8, !tbaa !24
  call void @_ZNSt10_Head_baseILm0EPvLb0EEC2IS0_EEOT_(ptr noundef nonnull align 8 dereferenceable(8) %12, ptr noundef nonnull align 8 dereferenceable(8) %13)
  ret void
}

; Function Attrs: mustprogress nounwind uwtable
define linkonce_odr dso_local void @_ZNSt5tupleIJPvPiiEEC2IJS0_S1_iELb1ETnNSt9enable_ifIXclsr4_TCCIXT0_EEE29__is_implicitly_constructibleIDpT_EEEbE4typeELb1EEEDpOS5_(ptr noundef nonnull align 8 dereferenceable(24) %0, ptr noundef nonnull align 8 dereferenceable(8) %1, ptr noundef nonnull align 8 dereferenceable(8) %2, ptr noundef nonnull align 4 dereferenceable(4) %3) unnamed_addr #5 comdat align 2 personality ptr @__gxx_personality_v0 {
  %5 = alloca ptr, align 8
  %6 = alloca ptr, align 8
  %7 = alloca ptr, align 8
  %8 = alloca ptr, align 8
  store ptr %0, ptr %5, align 8, !tbaa !138
  store ptr %1, ptr %6, align 8, !tbaa !24
  store ptr %2, ptr %7, align 8, !tbaa !259
  store ptr %3, ptr %8, align 8, !tbaa !257
  %9 = load ptr, ptr %5, align 8
  %10 = load ptr, ptr %6, align 8, !tbaa !24
  %11 = load ptr, ptr %7, align 8, !tbaa !259
  %12 = load ptr, ptr %8, align 8, !tbaa !257
  invoke void @_ZNSt11_Tuple_implILm0EJPvPiiEEC2IS0_JS1_iEvEEOT_DpOT0_(ptr noundef nonnull align 8 dereferenceable(24) %9, ptr noundef nonnull align 8 dereferenceable(8) %10, ptr noundef nonnull align 8 dereferenceable(8) %11, ptr noundef nonnull align 4 dereferenceable(4) %12)
          to label %13 unwind label %14

13:                                               ; preds = %4
  ret void

14:                                               ; preds = %4
  %15 = landingpad { ptr, i32 }
          catch ptr null
  %16 = extractvalue { ptr, i32 } %15, 0
  call void @__clang_call_terminate(ptr %16) #27
  unreachable
}

; Function Attrs: mustprogress uwtable
define linkonce_odr dso_local void @_ZN7testing8internal14FunctionMockerIFvPvPiiEE6InvokeES2_S3_i(ptr noundef nonnull align 8 dereferenceable(72) %0, ptr noundef %1, ptr noundef %2, i32 noundef %3) #6 comdat align 2 {
  %5 = alloca ptr, align 8
  %6 = alloca ptr, align 8
  %7 = alloca ptr, align 8
  %8 = alloca i32, align 4
  %9 = alloca %"class.std::tuple.51", align 8
  store ptr %0, ptr %5, align 8, !tbaa !132
  store ptr %1, ptr %6, align 8, !tbaa !24
  store ptr %2, ptr %7, align 8, !tbaa !257
  store i32 %3, ptr %8, align 4, !tbaa !17
  %10 = load ptr, ptr %5, align 8
  call void @llvm.lifetime.start.p0(i64 24, ptr %9) #3
  call void @_ZNSt5tupleIJPvPiiEEC2IJS0_S1_iELb1ETnNSt9enable_ifIXclsr4_TCCIXT0_EEE29__is_implicitly_constructibleIDpT_EEEbE4typeELb1EEEDpOS5_(ptr noundef nonnull align 8 dereferenceable(24) %9, ptr noundef nonnull align 8 dereferenceable(8) %6, ptr noundef nonnull align 8 dereferenceable(8) %7, ptr noundef nonnull align 4 dereferenceable(4) %8) #3
  call void @_ZN7testing8internal14FunctionMockerIFvPvPiiEE10InvokeWithEOSt5tupleIJS2_S3_iEE(ptr noundef nonnull align 8 dereferenceable(72) %10, ptr noundef nonnull align 8 dereferenceable(24) %9)
  call void @llvm.lifetime.end.p0(i64 24, ptr %9) #3
  ret void
}

; Function Attrs: mustprogress uwtable
define linkonce_odr dso_local void @_ZN7testing8internal12MockFunctionIFvPvPiiEE4CallES2_S3_i(ptr noundef nonnull align 8 dereferenceable(72) %0, ptr noundef %1, ptr noundef %2, i32 noundef %3) #6 comdat align 2 {
  %5 = alloca ptr, align 8
  %6 = alloca ptr, align 8
  %7 = alloca ptr, align 8
  %8 = alloca i32, align 4
  store ptr %0, ptr %5, align 8, !tbaa !128
  store ptr %1, ptr %6, align 8, !tbaa !24
  store ptr %2, ptr %7, align 8, !tbaa !257
  store i32 %3, ptr %8, align 4, !tbaa !17
  %9 = load ptr, ptr %5, align 8
  %10 = getelementptr inbounds nuw %"class.testing::internal::MockFunction", ptr %9, i32 0, i32 0
  call void @_ZN7testing8internal25UntypedFunctionMockerBase15SetOwnerAndNameEPKvPKc(ptr noundef nonnull align 8 dereferenceable(72) %10, ptr noundef %9, ptr noundef @.str.73)
  %11 = getelementptr inbounds nuw %"class.testing::internal::MockFunction", ptr %9, i32 0, i32 0
  %12 = load ptr, ptr %6, align 8, !tbaa !24
  %13 = load ptr, ptr %7, align 8, !tbaa !257
  %14 = load i32, ptr %8, align 4, !tbaa !17
  call void @_ZN7testing8internal14FunctionMockerIFvPvPiiEE6InvokeES2_S3_i(ptr noundef nonnull align 8 dereferenceable(72) %11, ptr noundef %12, ptr noundef %13, i32 noundef %14)
  ret void
}

; Function Attrs: inlinehint mustprogress uwtable
define internal void @_ZZN4absl18container_internal12_GLOBAL__N_14TestC1EvENKUlPvPiiE_clES3_S4_i(ptr noundef nonnull align 8 dereferenceable(8) %0, ptr noundef %1, ptr noundef %2, i32 noundef %3) #8 align 2 {
  %5 = alloca ptr, align 8
  %6 = alloca ptr, align 8
  %7 = alloca ptr, align 8
  %8 = alloca i32, align 4
  store ptr %0, ptr %5, align 8, !tbaa !24
  store ptr %1, ptr %6, align 8, !tbaa !24
  store ptr %2, ptr %7, align 8, !tbaa !257
  store i32 %3, ptr %8, align 4, !tbaa !17
  %9 = load ptr, ptr %5, align 8
  %10 = getelementptr inbounds nuw %class.anon, ptr %9, i32 0, i32 0
  %11 = load ptr, ptr %10, align 8, !tbaa !89
  %12 = getelementptr inbounds nuw %"struct.absl::container_internal::(anonymous namespace)::Test", ptr %11, i32 0, i32 3
  %13 = load ptr, ptr %6, align 8, !tbaa !24
  %14 = load ptr, ptr %7, align 8, !tbaa !257
  %15 = load i32, ptr %8, align 4, !tbaa !17
  call void @_ZN7testing8internal12MockFunctionIFvPvPiiEE4CallES2_S3_i(ptr noundef nonnull align 8 dereferenceable(72) %12, ptr noundef %13, ptr noundef %14, i32 noundef %15)
  ret void
}

; Function Attrs: mustprogress nounwind uwtable
define linkonce_odr dso_local noundef ptr @_ZNKSt9_Any_data9_M_accessEv(ptr noundef nonnull align 8 dereferenceable(16) %0) #5 comdat align 2 {
  %2 = alloca ptr, align 8
  store ptr %0, ptr %2, align 8, !tbaa !556
  %3 = load ptr, ptr %2, align 8
  %4 = getelementptr inbounds [16 x i8], ptr %3, i64 0, i64 0
  ret ptr %4
}

; Function Attrs: mustprogress uwtable
define internal void @_ZSt13__invoke_implIvRZN4absl18container_internal12_GLOBAL__N_14TestC1EvEUlPvPiiE_JS4_S5_iEET_St14__invoke_otherOT0_DpOT1_(ptr noundef nonnull align 8 dereferenceable(8) %0, ptr noundef nonnull align 8 dereferenceable(8) %1, ptr noundef nonnull align 8 dereferenceable(8) %2, ptr noundef nonnull align 4 dereferenceable(4) %3) #6 {
  %5 = alloca ptr, align 8
  %6 = alloca ptr, align 8
  %7 = alloca ptr, align 8
  %8 = alloca ptr, align 8
  store ptr %0, ptr %5, align 8, !tbaa !24
  store ptr %1, ptr %6, align 8, !tbaa !24
  store ptr %2, ptr %7, align 8, !tbaa !259
  store ptr %3, ptr %8, align 8, !tbaa !257
  %9 = load ptr, ptr %5, align 8, !tbaa !24
  %10 = load ptr, ptr %6, align 8, !tbaa !24
  %11 = load ptr, ptr %10, align 8, !tbaa !24
  %12 = load ptr, ptr %7, align 8, !tbaa !259
  %13 = load ptr, ptr %12, align 8, !tbaa !257
  %14 = load ptr, ptr %8, align 8, !tbaa !257
  %15 = load i32, ptr %14, align 4, !tbaa !17
  call void @_ZZN4absl18container_internal12_GLOBAL__N_14TestC1EvENKUlPvPiiE_clES3_S4_i(ptr noundef nonnull align 8 dereferenceable(8) %9, ptr noundef %11, ptr noundef %13, i32 noundef %15)
  ret void
}

; Function Attrs: mustprogress nounwind uwtable
define internal noundef nonnull align 8 dereferenceable(8) ptr @_ZNKSt9_Any_data9_M_accessIZN4absl18container_internal12_GLOBAL__N_14TestC1EvEUlPvPiiE_EERKT_v(ptr noundef nonnull align 8 dereferenceable(16) %0) #5 align 2 {
  %2 = alloca ptr, align 8
  store ptr %0, ptr %2, align 8, !tbaa !556
  %3 = load ptr, ptr %2, align 8
  %4 = call noundef ptr @_ZNKSt9_Any_data9_M_accessEv(ptr noundef nonnull align 8 dereferenceable(16) %3) #3
  ret ptr %4
}

; Function Attrs: mustprogress uwtable
define internal void @_ZSt10__invoke_rIvRZN4absl18container_internal12_GLOBAL__N_14TestC1EvEUlPvPiiE_JS4_S5_iEENSt9enable_ifIX16is_invocable_r_vIT_T0_DpT1_EES9_E4typeEOSA_DpOSB_(ptr noundef nonnull align 8 dereferenceable(8) %0, ptr noundef nonnull align 8 dereferenceable(8) %1, ptr noundef nonnull align 8 dereferenceable(8) %2, ptr noundef nonnull align 4 dereferenceable(4) %3) #6 {
  %5 = alloca ptr, align 8
  %6 = alloca ptr, align 8
  %7 = alloca ptr, align 8
  %8 = alloca ptr, align 8
  store ptr %0, ptr %5, align 8, !tbaa !24
  store ptr %1, ptr %6, align 8, !tbaa !24
  store ptr %2, ptr %7, align 8, !tbaa !259
  store ptr %3, ptr %8, align 8, !tbaa !257
  %9 = load ptr, ptr %5, align 8, !tbaa !24
  %10 = load ptr, ptr %6, align 8, !tbaa !24
  %11 = load ptr, ptr %7, align 8, !tbaa !259
  %12 = load ptr, ptr %8, align 8, !tbaa !257
  call void @_ZSt13__invoke_implIvRZN4absl18container_internal12_GLOBAL__N_14TestC1EvEUlPvPiiE_JS4_S5_iEET_St14__invoke_otherOT0_DpOT1_(ptr noundef nonnull align 8 dereferenceable(8) %9, ptr noundef nonnull align 8 dereferenceable(8) %10, ptr noundef nonnull align 8 dereferenceable(8) %11, ptr noundef nonnull align 4 dereferenceable(4) %12)
  ret void
}

; Function Attrs: mustprogress nounwind uwtable
define internal noundef ptr @_ZNSt14_Function_base13_Base_managerIZN4absl18container_internal12_GLOBAL__N_14TestC1EvEUlPvPiiE_E14_M_get_pointerERKSt9_Any_data(ptr noundef nonnull align 8 dereferenceable(16) %0) #5 align 2 {
  %2 = alloca ptr, align 8
  %3 = alloca ptr, align 8
  store ptr %0, ptr %2, align 8, !tbaa !556
  call void @llvm.lifetime.start.p0(i64 8, ptr %3) #3
  %4 = load ptr, ptr %2, align 8, !tbaa !556
  %5 = call noundef nonnull align 8 dereferenceable(8) ptr @_ZNKSt9_Any_data9_M_accessIZN4absl18container_internal12_GLOBAL__N_14TestC1EvEUlPvPiiE_EERKT_v(ptr noundef nonnull align 8 dereferenceable(16) %4) #3
  store ptr %5, ptr %3, align 8, !tbaa !24
  %6 = load ptr, ptr %3, align 8, !tbaa !24
  call void @llvm.lifetime.end.p0(i64 8, ptr %3) #3
  ret ptr %6
}

; Function Attrs: mustprogress uwtable
define internal void @_ZNSt17_Function_handlerIFvPvPiiEZN4absl18container_internal12_GLOBAL__N_14TestC1EvEUlS0_S1_iE_E9_M_invokeERKSt9_Any_dataOS0_OS1_Oi(ptr noundef nonnull align 8 dereferenceable(16) %0, ptr noundef nonnull align 8 dereferenceable(8) %1, ptr noundef nonnull align 8 dereferenceable(8) %2, ptr noundef nonnull align 4 dereferenceable(4) %3) #6 align 2 {
  %5 = alloca ptr, align 8
  %6 = alloca ptr, align 8
  %7 = alloca ptr, align 8
  %8 = alloca ptr, align 8
  store ptr %0, ptr %5, align 8, !tbaa !556
  store ptr %1, ptr %6, align 8, !tbaa !24
  store ptr %2, ptr %7, align 8, !tbaa !259
  store ptr %3, ptr %8, align 8, !tbaa !257
  %9 = load ptr, ptr %5, align 8, !tbaa !556
  %10 = call noundef ptr @_ZNSt14_Function_base13_Base_managerIZN4absl18container_internal12_GLOBAL__N_14TestC1EvEUlPvPiiE_E14_M_get_pointerERKSt9_Any_data(ptr noundef nonnull align 8 dereferenceable(16) %9) #3
  %11 = load ptr, ptr %6, align 8, !tbaa !24
  %12 = load ptr, ptr %7, align 8, !tbaa !259
  %13 = load ptr, ptr %8, align 8, !tbaa !257
  call void @_ZSt10__invoke_rIvRZN4absl18container_internal12_GLOBAL__N_14TestC1EvEUlPvPiiE_JS4_S5_iEENSt9enable_ifIX16is_invocable_r_vIT_T0_DpT1_EES9_E4typeEOSA_DpOSB_(ptr noundef nonnull align 8 dereferenceable(8) %10, ptr noundef nonnull align 8 dereferenceable(8) %11, ptr noundef nonnull align 8 dereferenceable(8) %12, ptr noundef nonnull align 4 dereferenceable(4) %13)
  ret void
}